; Function Attrs: mustprogress nofree norecurse nosync nounwind willreturn memory(read, inaccessiblemem: none) uwtable
define dso_local ptr @ExecGetCommonChildSlotOps(ptr noundef readonly captures(none) %0) local_unnamed_addr #6 {
  %2 = getelementptr inbounds nuw i8, ptr %0, i64 72
  %3 = load ptr, ptr %2, align 8
  %4 = getelementptr inbounds nuw i8, ptr %0, i64 80
  %5 = load ptr, ptr %4, align 8
  %6 = getelementptr inbounds nuw i8, ptr %3, i64 199
  %7 = load i8, ptr %6, align 1, !range !8, !noundef !9
  %8 = trunc nuw i8 %7 to i1
  br i1 %8, label %9, label %.thread.i.i

9:                                                ; preds = %1
  %10 = getelementptr inbounds nuw i8, ptr %3, i64 184
  %11 = load ptr, ptr %10, align 8
  %.not.i.i = icmp eq ptr %11, null
  %12 = getelementptr inbounds nuw i8, ptr %3, i64 195
  %13 = load i8, ptr %12, align 1, !range !8, !noundef !9
  br i1 %.not.i.i, label %.sink.split.i.i, label %ExecGetResultSlotOps.exit.i

.thread.i.i:                                      ; preds = %1
  %14 = getelementptr inbounds nuw i8, ptr %3, i64 120
  %15 = load ptr, ptr %14, align 8
  %.not21.i.i = icmp eq ptr %15, null
  br i1 %.not21.i.i, label %ExecGetCommonSlotOps.exit, label %.sink.split.i.thread37.i

.sink.split.i.thread37.i:                         ; preds = %.thread.i.i
  %16 = getelementptr inbounds nuw i8, ptr %15, i64 4
  %17 = load i16, ptr %16, align 4
  %18 = trunc i16 %17 to i8
  %19 = lshr i8 %18, 4
  br label %20

.sink.split.i.i:                                  ; preds = %9
  %.phi.trans.insert.i = getelementptr inbounds nuw i8, ptr %3, i64 120
  %.pre.i = load ptr, ptr %.phi.trans.insert.i, align 8
  %.not22.i.i = icmp eq ptr %.pre.i, null
  br i1 %.not22.i.i, label %ExecGetResultSlotOps.exit.i, label %20

20:                                               ; preds = %.sink.split.i.i, %.sink.split.i.thread37.i
  %.sink.i40.i = phi i8 [ %19, %.sink.split.i.thread37.i ], [ %13, %.sink.split.i.i ]
  %21 = phi ptr [ %15, %.sink.split.i.thread37.i ], [ %.pre.i, %.sink.split.i.i ]
  %22 = getelementptr inbounds nuw i8, ptr %21, i64 8
  %23 = load ptr, ptr %22, align 8
  br label %ExecGetResultSlotOps.exit.i

ExecGetResultSlotOps.exit.i:                      ; preds = %20, %.sink.split.i.i, %9
  %.028.i = phi i8 [ %13, %.sink.split.i.i ], [ %.sink.i40.i, %20 ], [ %13, %9 ]
  %.0.i.i = phi ptr [ @TTSOpsVirtual, %.sink.split.i.i ], [ %23, %20 ], [ %11, %9 ]
  %24 = trunc i8 %.028.i to i1
  br i1 %24, label %.lr.ph.i.preheader, label %ExecGetCommonSlotOps.exit

.lr.ph.i.preheader:                               ; preds = %ExecGetResultSlotOps.exit.i
  %25 = getelementptr inbounds nuw i8, ptr %5, i64 199
  %26 = load i8, ptr %25, align 1, !range !8, !noundef !9
  %27 = trunc nuw i8 %26 to i1
  br i1 %27, label %28, label %.thread.i18.i

28:                                               ; preds = %.lr.ph.i.preheader
  %29 = getelementptr inbounds nuw i8, ptr %5, i64 184
  %30 = load ptr, ptr %29, align 8
  %.not.i24.i = icmp eq ptr %30, null
  %31 = getelementptr inbounds nuw i8, ptr %5, i64 195
  %32 = load i8, ptr %31, align 1, !range !8, !noundef !9
  br i1 %.not.i24.i, label %.sink.split.i20.i, label %ExecGetResultSlotOps.exit26.i

.thread.i18.i:                                    ; preds = %.lr.ph.i.preheader
  %33 = getelementptr inbounds nuw i8, ptr %5, i64 120
  %34 = load ptr, ptr %33, align 8
  %.not21.i19.i = icmp eq ptr %34, null
  br i1 %.not21.i19.i, label %ExecGetCommonSlotOps.exit, label %.sink.split.i20.thread45.i

.sink.split.i20.thread45.i:                       ; preds = %.thread.i18.i
  %35 = getelementptr inbounds nuw i8, ptr %34, i64 4
  %36 = load i16, ptr %35, align 4
  %37 = trunc i16 %36 to i8
  %38 = lshr i8 %37, 4
  br label %39

.sink.split.i20.i:                                ; preds = %28
  %.phi.trans.insert33.i = getelementptr inbounds nuw i8, ptr %5, i64 120
  %.pre34.i = load ptr, ptr %.phi.trans.insert33.i, align 8
  %.not22.i22.i = icmp eq ptr %.pre34.i, null
  br i1 %.not22.i22.i, label %ExecGetResultSlotOps.exit26.i, label %39

39:                                               ; preds = %.sink.split.i20.i, %.sink.split.i20.thread45.i
  %.sink.i2148.i = phi i8 [ %38, %.sink.split.i20.thread45.i ], [ %32, %.sink.split.i20.i ]
  %40 = phi ptr [ %34, %.sink.split.i20.thread45.i ], [ %.pre34.i, %.sink.split.i20.i ]
  %41 = getelementptr inbounds nuw i8, ptr %40, i64 8
  %42 = load ptr, ptr %41, align 8
  br label %ExecGetResultSlotOps.exit26.i

ExecGetResultSlotOps.exit26.i:                    ; preds = %39, %.sink.split.i20.i, %28
  %.1.i = phi i8 [ %32, %.sink.split.i20.i ], [ %.sink.i2148.i, %39 ], [ %32, %28 ]
  %.0.i23.i = phi ptr [ @TTSOpsVirtual, %.sink.split.i20.i ], [ %42, %39 ], [ %30, %28 ]
  %43 = trunc i8 %.1.i to i1
  %.not.i = icmp eq ptr %.0.i.i, %.0.i23.i
  %or.cond.i = select i1 %43, i1 %.not.i, i1 false
  %spec.select = select i1 %or.cond.i, ptr %.0.i.i, ptr null
  br label %ExecGetCommonSlotOps.exit

ExecGetCommonSlotOps.exit:                        ; preds = %ExecGetResultSlotOps.exit26.i, %.thread.i18.i, %.thread.i.i, %ExecGetResultSlotOps.exit.i
  %.0.i = phi ptr [ null, %ExecGetResultSlotOps.exit.i ], [ null, %.thread.i.i ], [ null, %.thread.i18.i ], [ %spec.select, %ExecGetResultSlotOps.exit26.i ]
  ret ptr %.0.i
}